target datalayout = "e-m:e-p270:32:32-p271:32:32-p272:64:64-i64:64-i128:128-f80:128-n8:16:32:64-S128"
target triple = "x86_64-pc-linux-gnu"

%struct.rb_vm_struct = type { i64, %struct.anon, ptr, i64, %struct.ccan_list_head, i32, i8, i64, ptr, [5 x i64], i64, i64, i64, i64, i64, i64, i64, i64, i64, ptr, ptr, ptr, %struct.anon.3, ptr, i32, %struct.ccan_list_head, %union.pthread_mutex_t, i64, i64, i64, i64, i32, %struct.anon.4, ptr, ptr, ptr, ptr, ptr, ptr, ptr, ptr, i64, [1023 x ptr], %struct.anon.5 }
%struct.anon = type { %struct.ccan_list_head, i32, i32, ptr, ptr, %struct.anon.0, %struct.anon.2 }
%struct.anon.0 = type { %union.pthread_mutex_t, ptr, i32, %union.pthread_cond_t, i8 }
%union.pthread_cond_t = type { %struct.__pthread_cond_s }
%struct.__pthread_cond_s = type { %union.__atomic_wide_counter, %union.__atomic_wide_counter, [2 x i32], [2 x i32], i32, i32, [2 x i32] }
%union.__atomic_wide_counter = type { i64 }
%struct.anon.2 = type { %union.pthread_mutex_t, ptr, i8, %union.pthread_cond_t, i32, i32, i32, i32, %struct.ccan_list_head, i32, %struct.ccan_list_head, %struct.ccan_list_head, %struct.ccan_list_head, i8, %union.pthread_cond_t, %union.pthread_cond_t, i8, i32, i32 }
%struct.anon.3 = type { [65 x i64] }
%struct.ccan_list_head = type { %struct.ccan_list_node }
%struct.ccan_list_node = type { ptr, ptr }
%union.pthread_mutex_t = type { %struct.__pthread_mutex_s }
%struct.__pthread_mutex_s = type { i32, i32, i32, i32, i32, i16, i16, %struct.__pthread_internal_list }
%struct.__pthread_internal_list = type { ptr, ptr }
%struct.anon.4 = type { ptr, ptr }
%struct.anon.5 = type { i64, i64, i64, i64 }
%struct.ruby_cmdline_options = type { ptr, i64, i64, %struct.anon.6, %struct.anon.6, %struct.anon.6, i64, %struct.ruby_features_t, %struct.ruby_features_t, i32, i64, ptr, i16 }
%struct.anon.6 = type { %struct.anon.7 }
%struct.anon.7 = type { i64, i32 }
%struct.ruby_features_t = type { i32, i32 }
%struct.load_file_arg = type { i64, i64, i32, ptr, i64 }
%struct.rbimpl_size_mul_overflow_tag = type { i8, i64 }

@ruby_current_vm_ptr = external global ptr, align 8

; Function Attrs: inlinehint nounwind sspstrong willreturn memory(none) uwtable
define internal { i8, i64 } @rbimpl_size_mul_overflow(i64 noundef %0, i64 noundef %1) #13 {
  %3 = alloca %struct.rbimpl_size_mul_overflow_tag, align 8
  %4 = alloca i64, align 8
  %5 = alloca i64, align 8
  store i64 %0, ptr %4, align 8, !tbaa !42
  store i64 %1, ptr %5, align 8, !tbaa !42
  call void @llvm.memset.p0.i64(ptr align 8 %3, i8 0, i64 16, i1 false)
  %6 = load i64, ptr %4, align 8, !tbaa !42
  %7 = load i64, ptr %5, align 8, !tbaa !42
  %8 = getelementptr inbounds nuw %struct.rbimpl_size_mul_overflow_tag, ptr %3, i32 0, i32 1
  %9 = call { i64, i1 } @llvm.umul.with.overflow.i64(i64 %6, i64 %7)
  %10 = extractvalue { i64, i1 } %9, 1
  %11 = extractvalue { i64, i1 } %9, 0
  store i64 %11, ptr %8, align 8
  %12 = getelementptr inbounds nuw %struct.rbimpl_size_mul_overflow_tag, ptr %3, i32 0, i32 0
  %13 = zext i1 %10 to i8
  store i8 %13, ptr %12, align 8, !tbaa !145
  %14 = load { i8, i64 }, ptr %3, align 8
  ret { i8, i64 } %14
}

; Function Attrs: inlinehint nounwind sspstrong uwtable
define internal ptr @rb_current_vm() #5 {
  %1 = load ptr, ptr @ruby_current_vm_ptr, align 8, !tbaa !47
  ret ptr %1
}

; Function Attrs: nounwind sspstrong uwtable
define internal void @init_ids(ptr noundef %0) #0 {
  %2 = alloca ptr, align 8
  %3 = alloca i32, align 4
  %4 = alloca i32, align 4
  %5 = alloca i32, align 4
  %6 = alloca i32, align 4
  store ptr %0, ptr %2, align 8, !tbaa !51
  call void @llvm.lifetime.start.p0(i64 4, ptr %3) #24
  %7 = call i32 @getuid() #24
  store i32 %7, ptr %3, align 4, !tbaa !12
  call void @llvm.lifetime.start.p0(i64 4, ptr %4) #24
  %8 = call i32 @geteuid() #24
  store i32 %8, ptr %4, align 4, !tbaa !12
  call void @llvm.lifetime.start.p0(i64 4, ptr %5) #24
  %9 = call i32 @getgid() #24
  store i32 %9, ptr %5, align 4, !tbaa !12
  call void @llvm.lifetime.start.p0(i64 4, ptr %6) #24
  %10 = call i32 @getegid() #24
  store i32 %10, ptr %6, align 4, !tbaa !12
  %11 = load i32, ptr %3, align 4, !tbaa !12
  %12 = load i32, ptr %4, align 4, !tbaa !12
  %13 = icmp ne i32 %11, %12
  br i1 %13, label %14, label %28

14:                                               ; preds = %1
  %15 = load ptr, ptr %2, align 8, !tbaa !51
  %16 = getelementptr inbounds nuw %struct.ruby_cmdline_options, ptr %15, i32 0, i32 12
  %17 = load i16, ptr %16, align 8
  %18 = lshr i16 %17, 10
  %19 = and i16 %18, 3
  %20 = zext i16 %19 to i32
  %21 = or i32 %20, 1
  %22 = trunc i32 %21 to i16
  %23 = load i16, ptr %16, align 8
  %24 = and i16 %22, 3
  %25 = shl i16 %24, 10
  %26 = and i16 %23, -3073
  %27 = or i16 %26, %25
  store i16 %27, ptr %16, align 8
  br label %28

28:                                               ; preds = %14, %1
  %29 = load i32, ptr %6, align 4, !tbaa !12
  %30 = load i32, ptr %5, align 4, !tbaa !12
  %31 = icmp ne i32 %29, %30
  br i1 %31, label %32, label %46

32:                                               ; preds = %28
  %33 = load ptr, ptr %2, align 8, !tbaa !51
  %34 = getelementptr inbounds nuw %struct.ruby_cmdline_options, ptr %33, i32 0, i32 12
  %35 = load i16, ptr %34, align 8
  %36 = lshr i16 %35, 10
  %37 = and i16 %36, 3
  %38 = zext i16 %37 to i32
  %39 = or i32 %38, 2
  %40 = trunc i32 %39 to i16
  %41 = load i16, ptr %34, align 8
  %42 = and i16 %40, 3
  %43 = shl i16 %42, 10
  %44 = and i16 %41, -3073
  %45 = or i16 %44, %43
  store i16 %45, ptr %34, align 8
  br label %46

46:                                               ; preds = %32, %28
  call void @llvm.lifetime.end.p0(i64 4, ptr %6) #24
  call void @llvm.lifetime.end.p0(i64 4, ptr %5) #24
  call void @llvm.lifetime.end.p0(i64 4, ptr %4) #24
  call void @llvm.lifetime.end.p0(i64 4, ptr %3) #24
  ret void
}

; Function Attrs: alwaysinline nounwind
define internal ptr @memset.inline(ptr nonnull %0, i32 %1, i64 %2) #14 {
  %4 = alloca ptr, align 8
  %5 = alloca i32, align 4
  %6 = alloca i64, align 8
  store ptr %0, ptr %4, align 8, !tbaa !17
  store i32 %1, ptr %5, align 4, !tbaa !12
  store i64 %2, ptr %6, align 8, !tbaa !42
  %7 = load ptr, ptr %4, align 8, !tbaa !17
  %8 = load i32, ptr %5, align 4, !tbaa !12
  %9 = load i64, ptr %6, align 8, !tbaa !42
  %10 = load ptr, ptr %4, align 8, !tbaa !17
  %11 = call i64 @llvm.objectsize.i64.p0(ptr %10, i1 false, i1 true, i1 false)
  %12 = call ptr @__memset_chk(ptr noundef %7, i32 noundef %8, i64 noundef %9, i64 noundef %11) #24
  ret ptr %12
}

; Function Attrs: inlinehint nounwind sspstrong uwtable
define internal i64 @rbimpl_size_mul_or_raise(i64 noundef %0, i64 noundef %1) #5 {
  %3 = alloca i64, align 8
  %4 = alloca i64, align 8
  %5 = alloca %struct.rbimpl_size_mul_overflow_tag, align 8
  store i64 %0, ptr %3, align 8, !tbaa !42
  store i64 %1, ptr %4, align 8, !tbaa !42
  call void @llvm.lifetime.start.p0(i64 16, ptr %5) #24
  %6 = load i64, ptr %3, align 8, !tbaa !42
  %7 = load i64, ptr %4, align 8, !tbaa !42
  %8 = call { i8, i64 } @rbimpl_size_mul_overflow(i64 noundef %6, i64 noundef %7) #27
  %9 = getelementptr inbounds nuw { i8, i64 }, ptr %5, i32 0, i32 0
  %10 = extractvalue { i8, i64 } %8, 0
  store i8 %10, ptr %9, align 8
  %11 = getelementptr inbounds nuw { i8, i64 }, ptr %5, i32 0, i32 1
  %12 = extractvalue { i8, i64 } %8, 1
  store i64 %12, ptr %11, align 8
  %13 = getelementptr inbounds nuw %struct.rbimpl_size_mul_overflow_tag, ptr %5, i32 0, i32 0
  %14 = load i8, ptr %13, align 8, !tbaa !145, !range !94, !noundef !95
  %15 = trunc i8 %14 to i1
  %16 = xor i1 %15, true
  %17 = xor i1 %16, true
  %18 = xor i1 %17, true
  %19 = zext i1 %18 to i32
  %20 = sext i32 %19 to i64
  %21 = call i64 @llvm.expect.i64(i64 %20, i64 1)
  %22 = icmp ne i64 %21, 0
  br i1 %22, label %23, label %26

23:                                               ; preds = %2
  %24 = getelementptr inbounds nuw %struct.rbimpl_size_mul_overflow_tag, ptr %5, i32 0, i32 1
  %25 = load i64, ptr %24, align 8, !tbaa !147
  call void @llvm.lifetime.end.p0(i64 16, ptr %5) #24
  ret i64 %25

26:                                               ; preds = %2
  %27 = load i64, ptr %3, align 8, !tbaa !42
  %28 = load i64, ptr %4, align 8, !tbaa !42
  call void @ruby_malloc_size_overflow(i64 noundef %27, i64 noundef %28) #26
  unreachable
}

; Function Attrs: nounwind sspstrong uwtable
define internal i64 @load_file(i64 noundef %0, i64 noundef %1, i64 noundef %2, i32 noundef %3, ptr noundef %4) #0 {
  %6 = alloca i64, align 8
  %7 = alloca i64, align 8
  %8 = alloca i64, align 8
  %9 = alloca i32, align 4
  %10 = alloca ptr, align 8
  %11 = alloca %struct.load_file_arg, align 8
  store i64 %0, ptr %6, align 8, !tbaa !42
  store i64 %1, ptr %7, align 8, !tbaa !42
  store i64 %2, ptr %8, align 8, !tbaa !42
  store i32 %3, ptr %9, align 4, !tbaa !12
  store ptr %4, ptr %10, align 8, !tbaa !51
  call void @llvm.lifetime.start.p0(i64 40, ptr %11) #24
  %12 = load i64, ptr %6, align 8, !tbaa !42
  %13 = getelementptr inbounds nuw %struct.load_file_arg, ptr %11, i32 0, i32 0
  store i64 %12, ptr %13, align 8, !tbaa !64
  %14 = load i64, ptr %7, align 8, !tbaa !42
  %15 = getelementptr inbounds nuw %struct.load_file_arg, ptr %11, i32 0, i32 1
  store i64 %14, ptr %15, align 8, !tbaa !66
  %16 = load i32, ptr %9, align 4, !tbaa !12
  %17 = getelementptr inbounds nuw %struct.load_file_arg, ptr %11, i32 0, i32 2
  store i32 %16, ptr %17, align 8, !tbaa !67
  %18 = load ptr, ptr %10, align 8, !tbaa !51
  %19 = getelementptr inbounds nuw %struct.load_file_arg, ptr %11, i32 0, i32 3
  store ptr %18, ptr %19, align 8, !tbaa !68
  %20 = load i64, ptr %8, align 8, !tbaa !42
  %21 = getelementptr inbounds nuw %struct.load_file_arg, ptr %11, i32 0, i32 4
  store i64 %20, ptr %21, align 8, !tbaa !69
  %22 = ptrtoint ptr %11 to i64
  %23 = ptrtoint ptr %11 to i64
  %24 = call i64 @rb_ensure(ptr noundef @load_file_internal, i64 noundef %22, ptr noundef @restore_load_file, i64 noundef %23)
  call void @llvm.lifetime.end.p0(i64 40, ptr %11) #24
  ret i64 %24
}

; Function Attrs: nounwind sspstrong uwtable
define internal ptr @cmdline_options_init(ptr noundef %0) #0 {
  %2 = alloca ptr, align 8
  store ptr %0, ptr %2, align 8, !tbaa !51
  %3 = load ptr, ptr %2, align 8, !tbaa !51
  %4 = call i64 @rbimpl_size_mul_or_raise(i64 noundef 128, i64 noundef 1)
  %5 = call ptr @memset.inline(ptr noundef %3, i32 noundef 0, i64 noundef %4) #24
  %6 = load ptr, ptr %2, align 8, !tbaa !51
  call void @init_ids(ptr noundef %6)
  %7 = call ptr @rb_current_vm()
  %8 = getelementptr inbounds nuw %struct.rb_vm_struct, ptr %7, i32 0, i32 24
  %9 = load i32, ptr %8, align 8, !tbaa !53
  %10 = load ptr, ptr %2, align 8, !tbaa !51
  %11 = getelementptr inbounds nuw %struct.ruby_cmdline_options, ptr %10, i32 0, i32 3
  %12 = getelementptr inbounds nuw %struct.anon.6, ptr %11, i32 0, i32 0
  %13 = getelementptr inbounds nuw %struct.anon.7, ptr %12, i32 0, i32 1
  store i32 %9, ptr %13, align 8, !tbaa !54
  %14 = load ptr, ptr %2, align 8, !tbaa !51
  %15 = getelementptr inbounds nuw %struct.ruby_cmdline_options, ptr %14, i32 0, i32 4
  %16 = getelementptr inbounds nuw %struct.anon.6, ptr %15, i32 0, i32 0
  %17 = getelementptr inbounds nuw %struct.anon.7, ptr %16, i32 0, i32 1
  store i32 -1, ptr %17, align 8, !tbaa !59
  %18 = load ptr, ptr %2, align 8, !tbaa !51
  %19 = getelementptr inbounds nuw %struct.ruby_cmdline_options, ptr %18, i32 0, i32 5
  %20 = getelementptr inbounds nuw %struct.anon.6, ptr %19, i32 0, i32 0
  %21 = getelementptr inbounds nuw %struct.anon.7, ptr %20, i32 0, i32 1
  store i32 -1, ptr %21, align 8, !tbaa !60
  %22 = load ptr, ptr %2, align 8, !tbaa !51
  %23 = getelementptr inbounds nuw %struct.ruby_cmdline_options, ptr %22, i32 0, i32 7
  %24 = getelementptr inbounds nuw %struct.ruby_features_t, ptr %23, i32 0, i32 1
  store i32 31, ptr %24, align 4, !tbaa !61
  %25 = load ptr, ptr %2, align 8, !tbaa !51
  %26 = getelementptr inbounds nuw %struct.ruby_cmdline_options, ptr %25, i32 0, i32 9
  %27 = load i32, ptr %26, align 8, !tbaa !62
  %28 = or i32 %27, 8
  store i32 %28, ptr %26, align 8, !tbaa !62
  %29 = load ptr, ptr %2, align 8, !tbaa !51
  %30 = getelementptr inbounds nuw %struct.ruby_cmdline_options, ptr %29, i32 0, i32 10
  store i64 -9223372036854775808, ptr %30, align 8, !tbaa !63
  %31 = load ptr, ptr %2, align 8, !tbaa !51
  ret ptr %31
}

; Function Attrs: nounwind sspstrong uwtable
define hidden i64 @rb_parser_load_file(i64 noundef %0, i64 noundef %1) #0 {
  %3 = alloca i64, align 8
  %4 = alloca i64, align 8
  %5 = alloca %struct.ruby_cmdline_options, align 8
  %6 = alloca i32, align 4
  %7 = alloca i64, align 8
  store i64 %0, ptr %3, align 8, !tbaa !42
  store i64 %1, ptr %4, align 8, !tbaa !42
  call void @llvm.lifetime.start.p0(i64 128, ptr %5) #24
  call void @llvm.lifetime.start.p0(i64 4, ptr %6) #24
  store i32 0, ptr %6, align 4, !tbaa !12
  call void @llvm.lifetime.start.p0(i64 8, ptr %7) #24
  %8 = load i64, ptr %4, align 8, !tbaa !42
  %9 = call i64 @open_load_file(i64 noundef %8, ptr noundef %6)
  store i64 %9, ptr %7, align 8, !tbaa !42
  %10 = load i32, ptr %6, align 4, !tbaa !12
  %11 = icmp ne i32 %10, 0
  %12 = zext i1 %11 to i32
  %13 = call ptr @cmdline_options_init(ptr noundef %5)
  %14 = getelementptr inbounds nuw %struct.ruby_cmdline_options, ptr %13, i32 0, i32 12
  %15 = trunc i32 %12 to i16
  %16 = load i16, ptr %14, align 8
  %17 = and i16 %15, 1
  %18 = shl i16 %17, 2
  %19 = and i16 %16, -5
  %20 = or i16 %19, %18
  store i16 %20, ptr %14, align 8
  %21 = load i64, ptr %3, align 8, !tbaa !42
  %22 = load i64, ptr %4, align 8, !tbaa !42
  %23 = load i64, ptr %7, align 8, !tbaa !42
  %24 = call i64 @load_file(i64 noundef %21, i64 noundef %22, i64 noundef %23, i32 noundef 0, ptr noundef %5)
  call void @llvm.lifetime.end.p0(i64 8, ptr %7) #24
  call void @llvm.lifetime.end.p0(i64 4, ptr %6) #24
  call void @llvm.lifetime.end.p0(i64 128, ptr %5) #24
  ret i64 %24
}