; Function Attrs: nounwind sspstrong uwtable
define hidden i64 @rb_parser_load_file(i64 noundef %0, i64 noundef %1) local_unnamed_addr #0 {
cmdline_options_init.exit:
  %2 = alloca %struct.load_file_arg, align 8
  %3 = alloca %struct.ruby_cmdline_options, align 8
  call void @llvm.lifetime.start.p0(i64 128, ptr nonnull %3) #25
  %4 = tail call fastcc i64 @open_load_file(i64 noundef %1)
  call void @llvm.memset.p0.i64(ptr noundef nonnull align 8 dereferenceable(128) %3, i8 noundef 0, i64 noundef 128, i1 noundef false) #25
  %5 = tail call i32 @getuid() #25
  %6 = tail call i32 @geteuid() #25
  %7 = tail call i32 @getgid() #25
  %8 = tail call i32 @getegid() #25
  %.not.i.i = icmp eq i32 %5, %6
  %spec.select = select i1 %.not.i.i, i16 0, i16 1024
  %.not5.i.i = icmp eq i32 %8, %7
  %9 = or disjoint i16 %spec.select, 2048
  %10 = select i1 %.not5.i.i, i16 %spec.select, i16 %9
  %11 = load ptr, ptr @ruby_current_vm_ptr, align 8, !tbaa !12
  %12 = getelementptr inbounds nuw i8, ptr %11, i64 1192
  %13 = load i32, ptr %12, align 8, !tbaa !49
  %14 = getelementptr inbounds nuw i8, ptr %3, i64 32
  store i32 %13, ptr %14, align 8, !tbaa !50
  %15 = getelementptr inbounds nuw i8, ptr %3, i64 48
  store i32 -1, ptr %15, align 8, !tbaa !56
  %16 = getelementptr inbounds nuw i8, ptr %3, i64 64
  store i32 -1, ptr %16, align 8, !tbaa !57
  %17 = getelementptr inbounds nuw i8, ptr %3, i64 84
  store i32 31, ptr %17, align 4, !tbaa !58
  %18 = getelementptr inbounds nuw i8, ptr %3, i64 96
  store i32 8, ptr %18, align 8, !tbaa !59
  %19 = getelementptr inbounds nuw i8, ptr %3, i64 104
  store i64 -9223372036854775808, ptr %19, align 8, !tbaa !60
  %20 = getelementptr inbounds nuw i8, ptr %3, i64 120
  store i16 %10, ptr %20, align 8
  call void @llvm.lifetime.start.p0(i64 40, ptr nonnull %2) #25
  store i64 %0, ptr %2, align 8, !tbaa !61
  %21 = getelementptr inbounds nuw i8, ptr %2, i64 8
  store i64 %1, ptr %21, align 8, !tbaa !64
  %22 = getelementptr inbounds nuw i8, ptr %2, i64 16
  store i32 0, ptr %22, align 8, !tbaa !65
  %23 = getelementptr inbounds nuw i8, ptr %2, i64 24
  store ptr %3, ptr %23, align 8, !tbaa !66
  %24 = getelementptr inbounds nuw i8, ptr %2, i64 32
  store i64 %4, ptr %24, align 8, !tbaa !67
  %25 = ptrtoint ptr %2 to i64
  %26 = call i64 @rb_ensure(ptr noundef nonnull @load_file_internal, i64 noundef %25, ptr noundef nonnull @restore_load_file, i64 noundef %25) #25
  call void @llvm.lifetime.end.p0(i64 40, ptr nonnull %2) #25
  call void @llvm.lifetime.end.p0(i64 128, ptr nonnull %3) #25
  ret i64 %26
}